; Function Attrs: mustprogress uwtable
define internal void @_ZN12_GLOBAL__N_116SmtrPrintVisitor5sliceEN5Yosys10Functional4NodeES3_ii(ptr dead_on_unwind noalias writable sret(%"class.Yosys::SExpr") align 8 %0, ptr noundef nonnull align 8 dereferenceable(56) %1, ptr readnone captures(none) %2, i32 %3, ptr %4, i32 %5, i32 noundef %6, i32 noundef %7) unnamed_addr #5 align 2 personality ptr @__gxx_personality_v0 {
  %9 = alloca %"class.Yosys::Functional::Node", align 8
  %10 = alloca i32, align 4
  %11 = alloca i32, align 4
  %12 = alloca %"class.Yosys::SExpr", align 8
  store i32 %6, ptr %10, align 4, !tbaa !46
  call void @llvm.lifetime.start.p0(i64 4, ptr nonnull %11) #26
  %13 = add i32 %6, -1
  %14 = add i32 %13, %7
  store i32 %14, ptr %11, align 4, !tbaa !46
  call void @llvm.lifetime.start.p0(i64 40, ptr nonnull %12) #26
  call void @llvm.lifetime.start.p0(i64 16, ptr nonnull %9)
  store ptr %4, ptr %9, align 8, !noalias !535
  %15 = getelementptr inbounds nuw i8, ptr %9, i64 8
  store i32 %5, ptr %15, align 8, !noalias !535
  %16 = getelementptr inbounds nuw i8, ptr %1, i64 24
  %17 = load ptr, ptr %16, align 8, !tbaa !157, !noalias !535
  %.not.i.i = icmp eq ptr %17, null
  br i1 %.not.i.i, label %18, label %_ZNKSt8functionIFN5Yosys5SExprENS0_10Functional4NodeEEEclES3_.exit

18:                                               ; preds = %8
  tail call void @_ZSt25__throw_bad_function_callv() #28, !noalias !535
  unreachable

_ZNKSt8functionIFN5Yosys5SExprENS0_10Functional4NodeEEEclES3_.exit: ; preds = %8
  %19 = getelementptr inbounds nuw i8, ptr %1, i64 8
  %20 = getelementptr inbounds nuw i8, ptr %1, i64 32
  %21 = load ptr, ptr %20, align 8, !tbaa !159, !noalias !535
  call void %21(ptr dead_on_unwind nonnull writable sret(%"class.Yosys::SExpr") align 8 %12, ptr noundef nonnull align 8 dereferenceable(32) %19, ptr noundef nonnull align 8 dereferenceable(16) %9)
  call void @llvm.lifetime.end.p0(i64 16, ptr nonnull %9)
  invoke void @_ZN5Yosys9SExprUtil4listIJRA8_KciRiNS_5SExprEEEES6_DpOT_(ptr dead_on_unwind writable sret(%"class.Yosys::SExpr") align 8 %0, ptr noundef nonnull align 1 dereferenceable(8) @.str.22, ptr noundef nonnull align 4 dereferenceable(4) %11, ptr noundef nonnull align 4 dereferenceable(4) %10, ptr noundef nonnull align 8 dereferenceable(40) %12)
          to label %22 unwind label %34

22:                                               ; preds = %_ZNKSt8functionIFN5Yosys5SExprENS0_10Functional4NodeEEEclES3_.exit
  %23 = getelementptr inbounds nuw i8, ptr %12, i64 32
  %24 = load i8, ptr %23, align 8, !tbaa !117
  %switch.i.i.i = icmp eq i8 %24, 0
  br i1 %switch.i.i.i, label %.noexc1.i.i, label %25

.noexc1.i.i:                                      ; preds = %22
  call void @_ZNSt6vectorIN5Yosys5SExprESaIS1_EED2Ev(ptr noundef nonnull align 8 dereferenceable(40) %12) #26
  br label %_ZN5Yosys5SExprD2Ev.exit

25:                                               ; preds = %22
  %26 = load ptr, ptr %12, align 8, !tbaa !17
  %27 = getelementptr inbounds nuw i8, ptr %12, i64 16
  %28 = icmp eq ptr %26, %27
  br i1 %28, label %_ZNKSt7__cxx1112basic_stringIcSt11char_traitsIcESaIcEE11_M_is_localEv.exit.thread.i.i.i.i.i.i.i.i.i.i, label %_ZNKSt7__cxx1112basic_stringIcSt11char_traitsIcESaIcEE11_M_is_localEv.exit.i.i.i.i.i.i.i.i.i.i

_ZNKSt7__cxx1112basic_stringIcSt11char_traitsIcESaIcEE11_M_is_localEv.exit.thread.i.i.i.i.i.i.i.i.i.i: ; preds = %25
  %29 = getelementptr inbounds nuw i8, ptr %12, i64 8
  %30 = load i64, ptr %29, align 8, !tbaa !22
  %31 = icmp ult i64 %30, 16
  call void @llvm.assume(i1 %31)
  br label %_ZN5Yosys5SExprD2Ev.exit

_ZNKSt7__cxx1112basic_stringIcSt11char_traitsIcESaIcEE11_M_is_localEv.exit.i.i.i.i.i.i.i.i.i.i: ; preds = %25
  %32 = load i64, ptr %27, align 8, !tbaa !23
  %33 = add i64 %32, 1
  call void @_ZdlPvm(ptr noundef %26, i64 noundef %33) #27
  br label %_ZN5Yosys5SExprD2Ev.exit

_ZN5Yosys5SExprD2Ev.exit:                         ; preds = %.noexc1.i.i, %_ZNKSt7__cxx1112basic_stringIcSt11char_traitsIcESaIcEE11_M_is_localEv.exit.thread.i.i.i.i.i.i.i.i.i.i, %_ZNKSt7__cxx1112basic_stringIcSt11char_traitsIcESaIcEE11_M_is_localEv.exit.i.i.i.i.i.i.i.i.i.i
  call void @llvm.lifetime.end.p0(i64 40, ptr nonnull %12) #26
  call void @llvm.lifetime.end.p0(i64 4, ptr nonnull %11) #26
  ret void

34:                                               ; preds = %_ZNKSt8functionIFN5Yosys5SExprENS0_10Functional4NodeEEEclES3_.exit
  %35 = landingpad { ptr, i32 }
          cleanup
  call void @_ZN5Yosys5SExprD2Ev(ptr noundef nonnull align 8 dereferenceable(40) %12) #26
  call void @llvm.lifetime.end.p0(i64 40, ptr nonnull %12) #26
  call void @llvm.lifetime.end.p0(i64 4, ptr nonnull %11) #26
  resume { ptr, i32 } %35
}